target datalayout = "e-m:e-p270:32:32-p271:32:32-p272:64:64-i64:64-i128:128-f80:128-n8:16:32:64-S128"
target triple = "x86_64-unknown-linux-gnu"

%struct.uv_fs_s = type { ptr, i32, [6 x ptr], i32, ptr, ptr, i64, ptr, ptr, %struct.uv_stat_t, ptr, i32, i32, i32, i32, ptr, i64, i32, i32, double, double, %struct.uv__work, [4 x %struct.uv_buf_t] }
%struct.uv_stat_t = type { i64, i64, i64, i64, i64, i64, i64, i64, i64, i64, i64, i64, %struct.uv_timespec_t, %struct.uv_timespec_t, %struct.uv_timespec_t, %struct.uv_timespec_t }
%struct.uv_timespec_t = type { i64, i64 }
%struct.uv__work = type { ptr, ptr, ptr, %struct.uv__queue }
%struct.uv__queue = type { ptr, ptr }
%struct.uv_buf_t = type { ptr, i64 }
%struct.uv_loop_s = type { ptr, i32, %struct.uv__queue, %union.anon, ptr, i32, i64, i32, %struct.uv__queue, %struct.uv__queue, ptr, i32, i32, %struct.uv__queue, %union.pthread_mutex_t, %struct.uv_async_s, %union.pthread_rwlock_t, ptr, %struct.uv__queue, %struct.uv__queue, %struct.uv__queue, %struct.uv__queue, %struct.uv__queue, ptr, %struct.uv__io_s, i32, %struct.anon, i64, i64, [2 x i32], %struct.uv__io_s, %struct.uv_signal_s, i32, %struct.uv__io_s, ptr, i32 }
%union.anon = type { ptr }
%union.pthread_mutex_t = type { %struct.__pthread_mutex_s }
%struct.__pthread_mutex_s = type { i32, i32, i32, i32, i32, i16, i16, %struct.__pthread_internal_list }
%struct.__pthread_internal_list = type { ptr, ptr }
%struct.uv_async_s = type { ptr, ptr, i32, ptr, %struct.uv__queue, %union.anon.0, ptr, i32, ptr, %struct.uv__queue, i32 }
%union.anon.0 = type { [4 x ptr] }
%union.pthread_rwlock_t = type { %struct.__pthread_rwlock_arch_t }
%struct.__pthread_rwlock_arch_t = type { i32, i32, i32, i32, i32, i32, i32, i32, i8, [7 x i8], i64, i32 }
%struct.anon = type { ptr, i32 }
%struct.uv_signal_s = type { ptr, ptr, i32, ptr, %struct.uv__queue, %union.anon.1, ptr, i32, ptr, i32, %struct.anon.2, i32, i32 }
%union.anon.1 = type { [4 x ptr] }
%struct.anon.2 = type { ptr, ptr, ptr, i32 }
%struct.uv__io_s = type { ptr, %struct.uv__queue, %struct.uv__queue, i32, i32, i32 }

; Function Attrs: nounwind uwtable
define i32 @uv_fs_read(ptr noundef %loop, ptr noundef %req, i32 noundef %file, ptr noundef %bufs, i32 noundef %nbufs, i64 noundef %off, ptr noundef %cb) #0 {
entry:
  %retval = alloca i32, align 4
  %loop.addr = alloca ptr, align 8
  %req.addr = alloca ptr, align 8
  %file.addr = alloca i32, align 4
  %bufs.addr = alloca ptr, align 8
  %nbufs.addr = alloca i32, align 4
  %off.addr = alloca i64, align 8
  %cb.addr = alloca ptr, align 8
  store ptr %loop, ptr %loop.addr, align 8
  store ptr %req, ptr %req.addr, align 8
  store i32 %file, ptr %file.addr, align 4
  store ptr %bufs, ptr %bufs.addr, align 8
  store i32 %nbufs, ptr %nbufs.addr, align 4
  store i64 %off, ptr %off.addr, align 8
  store ptr %cb, ptr %cb.addr, align 8
  br label %do.body

do.body:                                          ; preds = %entry
  %0 = load ptr, ptr %req.addr, align 8
  %cmp = icmp eq ptr %0, null
  br i1 %cmp, label %if.then, label %if.end

if.then:                                          ; preds = %do.body
  store i32 -22, ptr %retval, align 4
  br label %do.end44

if.end:                                           ; preds = %do.body
  br label %do.body1

do.body1:                                         ; preds = %if.end
  %1 = load ptr, ptr %req.addr, align 8
  %type = getelementptr inbounds %struct.uv_fs_s, ptr %1, i32 0, i32 1
  store i32 6, ptr %type, align 8
  br label %do.end

do.end:                                           ; preds = %do.body1
  %2 = load ptr, ptr %req.addr, align 8
  %fs_type = getelementptr inbounds %struct.uv_fs_s, ptr %2, i32 0, i32 3
  store i32 3, ptr %fs_type, align 8
  %3 = load ptr, ptr %req.addr, align 8
  %result = getelementptr inbounds %struct.uv_fs_s, ptr %3, i32 0, i32 6
  store i64 0, ptr %result, align 8
  %4 = load ptr, ptr %req.addr, align 8
  %ptr = getelementptr inbounds %struct.uv_fs_s, ptr %4, i32 0, i32 7
  store ptr null, ptr %ptr, align 8
  %5 = load ptr, ptr %loop.addr, align 8
  %6 = load ptr, ptr %req.addr, align 8
  %loop2 = getelementptr inbounds %struct.uv_fs_s, ptr %6, i32 0, i32 4
  store ptr %5, ptr %loop2, align 8
  %7 = load ptr, ptr %req.addr, align 8
  %path = getelementptr inbounds %struct.uv_fs_s, ptr %7, i32 0, i32 8
  store ptr null, ptr %path, align 8
  %8 = load ptr, ptr %req.addr, align 8
  %new_path = getelementptr inbounds %struct.uv_fs_s, ptr %8, i32 0, i32 10
  store ptr null, ptr %new_path, align 8
  %9 = load ptr, ptr %req.addr, align 8
  %bufs3 = getelementptr inbounds %struct.uv_fs_s, ptr %9, i32 0, i32 15
  store ptr null, ptr %bufs3, align 8
  %10 = load ptr, ptr %cb.addr, align 8
  %11 = load ptr, ptr %req.addr, align 8
  %cb4 = getelementptr inbounds %struct.uv_fs_s, ptr %11, i32 0, i32 5
  store ptr %10, ptr %cb4, align 8
  br label %do.end5

do.end5:                                          ; preds = %do.end
  %12 = load ptr, ptr %bufs.addr, align 8
  %cmp6 = icmp eq ptr %12, null
  br i1 %cmp6, label %if.then8, label %lor.lhs.false

lor.lhs.false:                                    ; preds = %do.end5
  %13 = load i32, ptr %nbufs.addr, align 4
  %cmp7 = icmp eq i32 %13, 0
  br i1 %cmp7, label %if.then8, label %if.end9

if.then8:                                         ; preds = %lor.lhs.false, %do.end5
  store i32 -22, ptr %retval, align 4
  br label %do.end44

if.end9:                                          ; preds = %lor.lhs.false
  %14 = load i64, ptr %off.addr, align 8
  %15 = load ptr, ptr %req.addr, align 8
  %off10 = getelementptr inbounds %struct.uv_fs_s, ptr %15, i32 0, i32 16
  store i64 %14, ptr %off10, align 8
  %16 = load i32, ptr %file.addr, align 4
  %17 = load ptr, ptr %req.addr, align 8
  %file11 = getelementptr inbounds %struct.uv_fs_s, ptr %17, i32 0, i32 11
  store i32 %16, ptr %file11, align 8
  %18 = load ptr, ptr %bufs.addr, align 8
  %19 = load ptr, ptr %req.addr, align 8
  %bufs12 = getelementptr inbounds %struct.uv_fs_s, ptr %19, i32 0, i32 15
  store ptr %18, ptr %bufs12, align 8
  %20 = load i32, ptr %nbufs.addr, align 4
  %21 = load ptr, ptr %req.addr, align 8
  %nbufs13 = getelementptr inbounds %struct.uv_fs_s, ptr %21, i32 0, i32 14
  store i32 %20, ptr %nbufs13, align 4
  %22 = load ptr, ptr %cb.addr, align 8
  %cmp14 = icmp eq ptr %22, null
  br i1 %cmp14, label %if.then15, label %if.end16

if.then15:                                        ; preds = %if.end9
  br label %post

if.end16:                                         ; preds = %if.end9
  %23 = load ptr, ptr %req.addr, align 8
  %bufsml = getelementptr inbounds %struct.uv_fs_s, ptr %23, i32 0, i32 22
  %arraydecay = getelementptr inbounds [4 x %struct.uv_buf_t], ptr %bufsml, i64 0, i64 0
  %24 = load ptr, ptr %req.addr, align 8
  %bufs17 = getelementptr inbounds %struct.uv_fs_s, ptr %24, i32 0, i32 15
  store ptr %arraydecay, ptr %bufs17, align 8
  %25 = load i32, ptr %nbufs.addr, align 4
  %conv = zext i32 %25 to i64
  %cmp18 = icmp ugt i64 %conv, 4
  br i1 %cmp18, label %if.then20, label %if.end23

if.then20:                                        ; preds = %if.end16
  %26 = load i32, ptr %nbufs.addr, align 4
  %conv21 = zext i32 %26 to i64
  %mul = mul i64 %conv21, 16
  %call = call ptr @uv__malloc(i64 noundef %mul)
  %27 = load ptr, ptr %req.addr, align 8
  %bufs22 = getelementptr inbounds %struct.uv_fs_s, ptr %27, i32 0, i32 15
  store ptr %call, ptr %bufs22, align 8
  br label %if.end23

if.end23:                                         ; preds = %if.then20, %if.end16
  %28 = load ptr, ptr %req.addr, align 8
  %bufs24 = getelementptr inbounds %struct.uv_fs_s, ptr %28, i32 0, i32 15
  %29 = load ptr, ptr %bufs24, align 8
  %cmp25 = icmp eq ptr %29, null
  br i1 %cmp25, label %if.then27, label %if.end28

if.then27:                                        ; preds = %if.end23
  store i32 -12, ptr %retval, align 4
  br label %do.end44

if.end28:                                         ; preds = %if.end23
  %30 = load ptr, ptr %req.addr, align 8
  %bufs29 = getelementptr inbounds %struct.uv_fs_s, ptr %30, i32 0, i32 15
  %31 = load ptr, ptr %bufs29, align 8
  %32 = load ptr, ptr %bufs.addr, align 8
  %33 = load i32, ptr %nbufs.addr, align 4
  %conv30 = zext i32 %33 to i64
  %mul31 = mul i64 %conv30, 16
  call void @llvm.memcpy.p0.p0.i64(ptr align 8 %31, ptr align 8 %32, i64 %mul31, i1 false)
  %34 = load ptr, ptr %loop.addr, align 8
  %35 = load ptr, ptr %req.addr, align 8
  %call32 = call i32 @uv__iou_fs_read_or_write(ptr noundef %34, ptr noundef %35, i32 noundef 1)
  %tobool = icmp ne i32 %call32, 0
  br i1 %tobool, label %if.then33, label %if.end34

if.then33:                                        ; preds = %if.end28
  store i32 0, ptr %retval, align 4
  br label %do.end44

if.end34:                                         ; preds = %if.end28
  br label %post

post:                                             ; preds = %if.end34, %if.then15
  br label %do.body35

do.body35:                                        ; preds = %post
  %36 = load ptr, ptr %cb.addr, align 8
  %cmp36 = icmp ne ptr %36, null
  br i1 %cmp36, label %if.then38, label %if.else

if.then38:                                        ; preds = %do.body35
  br label %do.body39

do.body39:                                        ; preds = %if.then38
  %37 = load ptr, ptr %loop.addr, align 8
  %active_reqs = getelementptr inbounds %struct.uv_loop_s, ptr %37, i32 0, i32 3
  %38 = load i32, ptr %active_reqs, align 8
  %inc = add i32 %38, 1
  store i32 %inc, ptr %active_reqs, align 8
  br label %do.end40

do.end40:                                         ; preds = %do.body39
  %39 = load ptr, ptr %loop.addr, align 8
  %40 = load ptr, ptr %req.addr, align 8
  %work_req = getelementptr inbounds %struct.uv_fs_s, ptr %40, i32 0, i32 21
  call void @uv__work_submit(ptr noundef %39, ptr noundef %work_req, i32 noundef 1, ptr noundef @uv__fs_work, ptr noundef @uv__fs_done)
  store i32 0, ptr %retval, align 4
  br label %do.end44

if.else:                                          ; preds = %do.body35
  %41 = load ptr, ptr %req.addr, align 8
  %work_req41 = getelementptr inbounds %struct.uv_fs_s, ptr %41, i32 0, i32 21
  call void @uv__fs_work(ptr noundef %work_req41)
  %42 = load ptr, ptr %req.addr, align 8
  %result42 = getelementptr inbounds %struct.uv_fs_s, ptr %42, i32 0, i32 6
  %43 = load i64, ptr %result42, align 8
  %conv43 = trunc i64 %43 to i32
  store i32 %conv43, ptr %retval, align 4
  br label %do.end44

do.end44:                                         ; preds = %if.else, %do.end40, %if.then33, %if.then27, %if.then8, %if.then
  %44 = load i32, ptr %retval, align 4
  ret i32 %44
}