; Function Attrs: nounwind uwtable
define i32 @uv_fs_read(ptr noundef %loop, ptr noundef %req, i32 noundef %file, ptr noundef %bufs, i32 noundef %nbufs, i64 noundef %off, ptr noundef %cb) local_unnamed_addr #0 {
entry:
  %cmp = icmp eq ptr %req, null
  br i1 %cmp, label %do.end44, label %do.body1

do.body1:                                         ; preds = %entry
  %type = getelementptr inbounds nuw i8, ptr %req, i64 8
  store i32 6, ptr %type, align 8
  %fs_type = getelementptr inbounds nuw i8, ptr %req, i64 64
  store i32 3, ptr %fs_type, align 8
  %result = getelementptr inbounds nuw i8, ptr %req, i64 88
  %loop2 = getelementptr inbounds nuw i8, ptr %req, i64 72
  tail call void @llvm.memset.p0.i64(ptr noundef nonnull align 8 dereferenceable(16) %result, i8 0, i64 16, i1 false)
  store ptr %loop, ptr %loop2, align 8
  %path = getelementptr inbounds nuw i8, ptr %req, i64 104
  store ptr null, ptr %path, align 8
  %new_path = getelementptr inbounds nuw i8, ptr %req, i64 272
  store ptr null, ptr %new_path, align 8
  %bufs3 = getelementptr inbounds nuw i8, ptr %req, i64 296
  store ptr null, ptr %bufs3, align 8
  %cb4 = getelementptr inbounds nuw i8, ptr %req, i64 80
  store ptr %cb, ptr %cb4, align 8
  %cmp6 = icmp eq ptr %bufs, null
  %cmp7 = icmp eq i32 %nbufs, 0
  %or.cond = or i1 %cmp6, %cmp7
  br i1 %or.cond, label %do.end44, label %if.end9

if.end9:                                          ; preds = %do.body1
  %off10 = getelementptr inbounds nuw i8, ptr %req, i64 304
  store i64 %off, ptr %off10, align 8
  %file11 = getelementptr inbounds nuw i8, ptr %req, i64 280
  store i32 %file, ptr %file11, align 8
  store ptr %bufs, ptr %bufs3, align 8
  %nbufs13 = getelementptr inbounds nuw i8, ptr %req, i64 292
  store i32 %nbufs, ptr %nbufs13, align 4
  %cond = icmp eq ptr %cb, null
  br i1 %cond, label %if.else, label %if.end16

if.end16:                                         ; preds = %if.end9
  %bufsml = getelementptr inbounds nuw i8, ptr %req, i64 376
  store ptr %bufsml, ptr %bufs3, align 8
  %conv = zext i32 %nbufs to i64
  %cmp18 = icmp ugt i32 %nbufs, 4
  %mul = shl nuw nsw i64 %conv, 4
  br i1 %cmp18, label %if.end23, label %if.end28

if.end23:                                         ; preds = %if.end16
  %call = tail call ptr @uv__malloc(i64 noundef %mul) #15
  store ptr %call, ptr %bufs3, align 8
  %cmp25 = icmp eq ptr %call, null
  br i1 %cmp25, label %do.end44, label %if.end28

if.end28:                                         ; preds = %if.end16, %if.end23
  %0 = phi ptr [ %call, %if.end23 ], [ %bufsml, %if.end16 ]
  tail call void @llvm.memcpy.p0.p0.i64(ptr nonnull align 8 %0, ptr nonnull align 8 %bufs, i64 %mul, i1 false)
  %call32 = tail call i32 @uv__iou_fs_read_or_write(ptr noundef %loop, ptr noundef nonnull %req, i32 noundef 1) #15
  %tobool.not = icmp eq i32 %call32, 0
  br i1 %tobool.not, label %do.body39, label %do.end44

do.body39:                                        ; preds = %if.end28
  %active_reqs = getelementptr inbounds nuw i8, ptr %loop, i64 32
  %1 = load i32, ptr %active_reqs, align 8
  %inc = add i32 %1, 1
  store i32 %inc, ptr %active_reqs, align 8
  %work_req = getelementptr inbounds nuw i8, ptr %req, i64 336
  tail call void @uv__work_submit(ptr noundef %loop, ptr noundef nonnull %work_req, i32 noundef 1, ptr noundef nonnull @uv__fs_work, ptr noundef nonnull @uv__fs_done) #15
  br label %do.end44

if.else:                                          ; preds = %if.end9
  %work_req41 = getelementptr inbounds nuw i8, ptr %req, i64 336
  tail call void @uv__fs_work(ptr noundef nonnull %work_req41)
  %2 = load i64, ptr %result, align 8
  %conv43 = trunc i64 %2 to i32
  br label %do.end44

do.end44:                                         ; preds = %if.end28, %if.end23, %do.body1, %entry, %if.else, %do.body39
  %retval.0 = phi i32 [ 0, %do.body39 ], [ %conv43, %if.else ], [ -22, %entry ], [ -22, %do.body1 ], [ -12, %if.end23 ], [ 0, %if.end28 ]
  ret i32 %retval.0
}